target datalayout = "e-m:e-p270:32:32-p271:32:32-p272:64:64-i64:64-i128:128-f80:128-n8:16:32:64-S128"
target triple = "x86_64-pc-linux-gnu"

%struct.__va_list_tag = type { i32, i32, ptr, ptr }
%"class.std::__cxx11::basic_string" = type { %"struct.std::__cxx11::basic_string<char>::_Alloc_hider", i64, %union.anon }
%"struct.std::__cxx11::basic_string<char>::_Alloc_hider" = type { ptr }
%union.anon = type { i64, [8 x i8] }

@.str.5 = private unnamed_addr constant [21 x i8] c"basic_string::append\00", align 1

; Function Attrs: mustprogress nounwind uwtable
define linkonce_odr hidden noundef i64 @_ZNKSt15__new_allocatorIcE11_M_max_sizeEv(ptr noundef nonnull align 1 dereferenceable(1) %0) #9 comdat align 2 {
  %2 = alloca ptr, align 8
  store ptr %0, ptr %2, align 8, !tbaa !31
  ret i64 9223372036854775807
}

; Function Attrs: mustprogress nounwind uwtable
define linkonce_odr hidden noundef i64 @_ZNKSt15__new_allocatorIcE8max_sizeEv(ptr noundef nonnull align 1 dereferenceable(1) %0) #9 comdat align 2 {
  %2 = alloca ptr, align 8
  store ptr %0, ptr %2, align 8, !tbaa !31
  %3 = load ptr, ptr %2, align 8
  %4 = call noundef i64 @_ZNKSt15__new_allocatorIcE11_M_max_sizeEv(ptr noundef nonnull align 1 dereferenceable(1) %3) #3
  ret i64 %4
}

; Function Attrs: noinline noreturn nounwind uwtable
define linkonce_odr hidden void @__clang_call_terminate(ptr noundef %0) #10 comdat {
  %2 = call ptr @__cxa_begin_catch(ptr %0) #3
  call void @_ZSt9terminatev() #15
  unreachable
}

; Function Attrs: mustprogress nounwind uwtable
define linkonce_odr hidden noundef i64 @_ZNSt16allocator_traitsISaIcEE8max_sizeERKS0_(ptr noundef nonnull align 1 dereferenceable(1) %0) #9 comdat align 2 {
  %2 = alloca ptr, align 8
  store ptr %0, ptr %2, align 8, !tbaa !29
  %3 = load ptr, ptr %2, align 8, !tbaa !29
  %4 = call noundef i64 @_ZNKSt15__new_allocatorIcE8max_sizeEv(ptr noundef nonnull align 1 dereferenceable(1) %3) #3
  ret i64 %4
}

; Function Attrs: mustprogress nounwind uwtable
define available_externally noundef nonnull align 1 dereferenceable(1) ptr @_ZNKSt7__cxx1112basic_stringIcSt11char_traitsIcESaIcEE16_M_get_allocatorEv(ptr noundef nonnull align 8 dereferenceable(32) %0) #9 align 2 {
  %2 = alloca ptr, align 8
  store ptr %0, ptr %2, align 8, !tbaa !3
  %3 = load ptr, ptr %2, align 8
  %4 = getelementptr inbounds nuw %"class.std::__cxx11::basic_string", ptr %3, i32 0, i32 0
  ret ptr %4
}

; Function Attrs: mustprogress nounwind uwtable
define available_externally noundef i64 @_ZNKSt7__cxx1112basic_stringIcSt11char_traitsIcESaIcEE4sizeEv(ptr noundef nonnull align 8 dereferenceable(32) %0) #9 align 2 {
  %2 = alloca ptr, align 8
  store ptr %0, ptr %2, align 8, !tbaa !3
  %3 = load ptr, ptr %2, align 8
  %4 = getelementptr inbounds nuw %"class.std::__cxx11::basic_string", ptr %3, i32 0, i32 1
  %5 = load i64, ptr %4, align 8, !tbaa !28
  ret i64 %5
}

; Function Attrs: mustprogress nounwind uwtable
define available_externally noundef i64 @_ZNKSt7__cxx1112basic_stringIcSt11char_traitsIcESaIcEE8max_sizeEv(ptr noundef nonnull align 8 dereferenceable(32) %0) #9 align 2 personality ptr @__gxx_personality_v0 {
  %2 = alloca ptr, align 8
  store ptr %0, ptr %2, align 8, !tbaa !3
  %3 = load ptr, ptr %2, align 8
  %4 = invoke noundef nonnull align 1 dereferenceable(1) ptr @_ZNKSt7__cxx1112basic_stringIcSt11char_traitsIcESaIcEE16_M_get_allocatorEv(ptr noundef nonnull align 8 dereferenceable(32) %3)
          to label %5 unwind label %9

5:                                                ; preds = %1
  %6 = call noundef i64 @_ZNSt16allocator_traitsISaIcEE8max_sizeERKS0_(ptr noundef nonnull align 1 dereferenceable(1) %4) #3
  %7 = sub i64 %6, 1
  %8 = udiv i64 %7, 2
  ret i64 %8

9:                                                ; preds = %1
  %10 = landingpad { ptr, i32 }
          catch ptr null
  %11 = extractvalue { ptr, i32 } %10, 0
  call void @__clang_call_terminate(ptr %11) #15
  unreachable
}

; Function Attrs: mustprogress uwtable
define available_externally void @_ZNKSt7__cxx1112basic_stringIcSt11char_traitsIcESaIcEE15_M_check_lengthEmmPKc(ptr noundef nonnull align 8 dereferenceable(32) %0, i64 noundef %1, i64 noundef %2, ptr noundef %3) #4 align 2 {
  %5 = alloca ptr, align 8
  %6 = alloca i64, align 8
  %7 = alloca i64, align 8
  %8 = alloca ptr, align 8
  store ptr %0, ptr %5, align 8, !tbaa !3
  store i64 %1, ptr %6, align 8, !tbaa !14
  store i64 %2, ptr %7, align 8, !tbaa !14
  store ptr %3, ptr %8, align 8, !tbaa !8
  %9 = load ptr, ptr %5, align 8
  %10 = call noundef i64 @_ZNKSt7__cxx1112basic_stringIcSt11char_traitsIcESaIcEE8max_sizeEv(ptr noundef nonnull align 8 dereferenceable(32) %9) #3
  %11 = call noundef i64 @_ZNKSt7__cxx1112basic_stringIcSt11char_traitsIcESaIcEE4sizeEv(ptr noundef nonnull align 8 dereferenceable(32) %9) #3
  %12 = load i64, ptr %6, align 8, !tbaa !14
  %13 = sub i64 %11, %12
  %14 = sub i64 %10, %13
  %15 = load i64, ptr %7, align 8, !tbaa !14
  %16 = icmp ult i64 %14, %15
  br i1 %16, label %17, label %19

17:                                               ; preds = %4
  %18 = load ptr, ptr %8, align 8, !tbaa !8
  call void @_ZSt20__throw_length_errorPKc(ptr noundef %18) #16
  unreachable

19:                                               ; preds = %4
  ret void
}

; Function Attrs: mustprogress uwtable
define available_externally noundef nonnull align 8 dereferenceable(32) ptr @_ZNSt7__cxx1112basic_stringIcSt11char_traitsIcESaIcEE6appendEPKcm(ptr noundef nonnull align 8 dereferenceable(32) %0, ptr noundef %1, i64 noundef %2) #4 align 2 {
  %4 = alloca ptr, align 8
  %5 = alloca ptr, align 8
  %6 = alloca i64, align 8
  store ptr %0, ptr %4, align 8, !tbaa !3
  store ptr %1, ptr %5, align 8, !tbaa !8
  store i64 %2, ptr %6, align 8, !tbaa !14
  %7 = load ptr, ptr %4, align 8
  %8 = load i64, ptr %6, align 8, !tbaa !14
  call void @_ZNKSt7__cxx1112basic_stringIcSt11char_traitsIcESaIcEE15_M_check_lengthEmmPKc(ptr noundef nonnull align 8 dereferenceable(32) %7, i64 noundef 0, i64 noundef %8, ptr noundef @.str.5)
  %9 = load ptr, ptr %5, align 8, !tbaa !8
  %10 = load i64, ptr %6, align 8, !tbaa !14
  %11 = call noundef nonnull align 8 dereferenceable(32) ptr @_ZNSt7__cxx1112basic_stringIcSt11char_traitsIcESaIcEE9_M_appendEPKcm(ptr noundef nonnull align 8 dereferenceable(32) %7, ptr noundef %9, i64 noundef %10)
  ret ptr %11
}

; Function Attrs: mustprogress uwtable
define hidden void @_ZN6google8protobuf13StringAppendVEPNSt7__cxx1112basic_stringIcSt11char_traitsIcESaIcEEEPKcP13__va_list_tag(ptr noundef %0, ptr noundef %1, ptr noundef %2) #4 {
  %4 = alloca ptr, align 8
  %5 = alloca ptr, align 8
  %6 = alloca ptr, align 8
  %7 = alloca [1024 x i8], align 16
  %8 = alloca [1 x %struct.__va_list_tag], align 16
  %9 = alloca i32, align 4
  %10 = alloca i32, align 4
  %11 = alloca i32, align 4
  %12 = alloca ptr, align 8
  store ptr %0, ptr %4, align 8, !tbaa !3
  store ptr %1, ptr %5, align 8, !tbaa !8
  store ptr %2, ptr %6, align 8, !tbaa !10
  call void @llvm.lifetime.start.p0(i64 1024, ptr %7) #3
  call void @llvm.lifetime.start.p0(i64 24, ptr %8) #3
  %13 = getelementptr inbounds [1 x %struct.__va_list_tag], ptr %8, i64 0, i64 0
  %14 = load ptr, ptr %6, align 8, !tbaa !10
  call void @llvm.va_copy.p0(ptr %13, ptr %14)
  call void @llvm.lifetime.start.p0(i64 4, ptr %9) #3
  %15 = getelementptr inbounds [1024 x i8], ptr %7, i64 0, i64 0
  %16 = load ptr, ptr %5, align 8, !tbaa !8
  %17 = getelementptr inbounds [1 x %struct.__va_list_tag], ptr %8, i64 0, i64 0
  %18 = call i32 @vsnprintf(ptr noundef %15, i64 noundef 1024, ptr noundef %16, ptr noundef %17) #3
  store i32 %18, ptr %9, align 4, !tbaa !12
  %19 = getelementptr inbounds [1 x %struct.__va_list_tag], ptr %8, i64 0, i64 0
  call void @llvm.va_end.p0(ptr %19)
  %20 = load i32, ptr %9, align 4, !tbaa !12
  %21 = icmp slt i32 %20, 1024
  br i1 %21, label %22, label %36

22:                                               ; preds = %3
  %23 = load i32, ptr %9, align 4, !tbaa !12
  %24 = icmp sge i32 %23, 0
  br i1 %24, label %25, label %31

25:                                               ; preds = %22
  %26 = load ptr, ptr %4, align 8, !tbaa !3
  %27 = getelementptr inbounds [1024 x i8], ptr %7, i64 0, i64 0
  %28 = load i32, ptr %9, align 4, !tbaa !12
  %29 = sext i32 %28 to i64
  %30 = call noundef nonnull align 8 dereferenceable(32) ptr @_ZNSt7__cxx1112basic_stringIcSt11char_traitsIcESaIcEE6appendEPKcm(ptr noundef nonnull align 8 dereferenceable(32) %26, ptr noundef %27, i64 noundef %29)
  store i32 1, ptr %10, align 4
  br label %70

31:                                               ; preds = %22
  %32 = load i32, ptr %9, align 4, !tbaa !12
  %33 = icmp slt i32 %32, 0
  br i1 %33, label %34, label %35

34:                                               ; preds = %31
  store i32 1, ptr %10, align 4
  br label %70

35:                                               ; preds = %31
  br label %36

36:                                               ; preds = %35, %3
  call void @llvm.lifetime.start.p0(i64 4, ptr %11) #3
  %37 = load i32, ptr %9, align 4, !tbaa !12
  %38 = add nsw i32 %37, 1
  store i32 %38, ptr %11, align 4, !tbaa !12
  call void @llvm.lifetime.start.p0(i64 8, ptr %12) #3
  %39 = load i32, ptr %11, align 4, !tbaa !12
  %40 = sext i32 %39 to i64
  %41 = icmp slt i64 %40, 0
  %42 = select i1 %41, i64 -1, i64 %40
  %43 = call noalias noundef nonnull ptr @_Znam(i64 noundef %42) #13
  store ptr %43, ptr %12, align 8, !tbaa !8
  %44 = getelementptr inbounds [1 x %struct.__va_list_tag], ptr %8, i64 0, i64 0
  %45 = load ptr, ptr %6, align 8, !tbaa !10
  call void @llvm.va_copy.p0(ptr %44, ptr %45)
  %46 = load ptr, ptr %12, align 8, !tbaa !8
  %47 = load i32, ptr %11, align 4, !tbaa !12
  %48 = sext i32 %47 to i64
  %49 = load ptr, ptr %5, align 8, !tbaa !8
  %50 = getelementptr inbounds [1 x %struct.__va_list_tag], ptr %8, i64 0, i64 0
  %51 = call i32 @vsnprintf(ptr noundef %46, i64 noundef %48, ptr noundef %49, ptr noundef %50) #3
  store i32 %51, ptr %9, align 4, !tbaa !12
  %52 = getelementptr inbounds [1 x %struct.__va_list_tag], ptr %8, i64 0, i64 0
  call void @llvm.va_end.p0(ptr %52)
  %53 = load i32, ptr %9, align 4, !tbaa !12
  %54 = icmp sge i32 %53, 0
  br i1 %54, label %55, label %65

55:                                               ; preds = %36
  %56 = load i32, ptr %9, align 4, !tbaa !12
  %57 = load i32, ptr %11, align 4, !tbaa !12
  %58 = icmp slt i32 %56, %57
  br i1 %58, label %59, label %65

59:                                               ; preds = %55
  %60 = load ptr, ptr %4, align 8, !tbaa !3
  %61 = load ptr, ptr %12, align 8, !tbaa !8
  %62 = load i32, ptr %9, align 4, !tbaa !12
  %63 = sext i32 %62 to i64
  %64 = call noundef nonnull align 8 dereferenceable(32) ptr @_ZNSt7__cxx1112basic_stringIcSt11char_traitsIcESaIcEE6appendEPKcm(ptr noundef nonnull align 8 dereferenceable(32) %60, ptr noundef %61, i64 noundef %63)
  br label %65

65:                                               ; preds = %59, %55, %36
  %66 = load ptr, ptr %12, align 8, !tbaa !8
  %67 = icmp eq ptr %66, null
  br i1 %67, label %69, label %68

68:                                               ; preds = %65
  call void @_ZdaPv(ptr noundef %66) #14
  br label %69

69:                                               ; preds = %68, %65
  call void @llvm.lifetime.end.p0(i64 8, ptr %12) #3
  call void @llvm.lifetime.end.p0(i64 4, ptr %11) #3
  store i32 0, ptr %10, align 4
  br label %70

70:                                               ; preds = %69, %34, %25
  call void @llvm.lifetime.end.p0(i64 4, ptr %9) #3
  call void @llvm.lifetime.end.p0(i64 24, ptr %8) #3
  call void @llvm.lifetime.end.p0(i64 1024, ptr %7) #3
  %71 = load i32, ptr %10, align 4
  switch i32 %71, label %73 [
    i32 0, label %72
    i32 1, label %72
  ]

72:                                               ; preds = %70, %70
  ret void

73:                                               ; preds = %70
  unreachable
}