; Function Attrs: mustprogress uwtable
define hidden void @_ZN6google8protobuf13StringAppendVEPNSt7__cxx1112basic_stringIcSt11char_traitsIcESaIcEEEPKcP13__va_list_tag(ptr noundef %0, ptr noundef readonly captures(none) %1, ptr noundef %2) local_unnamed_addr #3 personality ptr @__gxx_personality_v0 {
  %4 = alloca [1024 x i8], align 16
  %5 = alloca [1 x %struct.__va_list_tag], align 16
  call void @llvm.lifetime.start.p0(i64 1024, ptr nonnull %4) #13
  call void @llvm.lifetime.start.p0(i64 24, ptr nonnull %5) #13
  call void @llvm.va_copy.p0(ptr nonnull %5, ptr %2)
  %6 = call i32 @vsnprintf(ptr noundef nonnull %4, i64 noundef 1024, ptr noundef %1, ptr noundef nonnull %5) #13
  call void @llvm.va_end.p0(ptr nonnull %5)
  %7 = icmp slt i32 %6, 1024
  br i1 %7, label %8, label %18

8:                                                ; preds = %3
  %9 = icmp sgt i32 %6, -1
  br i1 %9, label %10, label %32

10:                                               ; preds = %8
  %11 = zext nneg i32 %6 to i64
  %12 = getelementptr inbounds nuw i8, ptr %0, i64 8
  %13 = load i64, ptr %12, align 8, !tbaa !3
  %14 = sub i64 4611686018427387903, %13
  %15 = icmp ult i64 %14, %11
  br i1 %15, label %16, label %_ZNSt7__cxx1112basic_stringIcSt11char_traitsIcESaIcEE6appendEPKcm.exit

16:                                               ; preds = %10
  call void @_ZSt20__throw_length_errorPKc(ptr noundef nonnull @.str.5) #14
  unreachable

_ZNSt7__cxx1112basic_stringIcSt11char_traitsIcESaIcEE6appendEPKcm.exit: ; preds = %10
  %17 = call noundef nonnull align 8 dereferenceable(32) ptr @_ZNSt7__cxx1112basic_stringIcSt11char_traitsIcESaIcEE9_M_appendEPKcm(ptr noundef nonnull align 8 dereferenceable(32) %0, ptr noundef nonnull %4, i64 noundef %11)
  br label %32

18:                                               ; preds = %3
  %19 = add nuw nsw i32 %6, 1
  %20 = zext nneg i32 %19 to i64
  %21 = call noalias noundef nonnull ptr @_Znam(i64 noundef %20) #15
  call void @llvm.va_copy.p0(ptr nonnull %5, ptr %2)
  %22 = call i32 @vsnprintf(ptr noundef nonnull %21, i64 noundef %20, ptr noundef %1, ptr noundef nonnull %5) #13
  call void @llvm.va_end.p0(ptr nonnull %5)
  %or.cond = icmp ugt i32 %22, %6
  br i1 %or.cond, label %31, label %23

23:                                               ; preds = %18
  %24 = zext nneg i32 %22 to i64
  %25 = getelementptr inbounds nuw i8, ptr %0, i64 8
  %26 = load i64, ptr %25, align 8, !tbaa !3
  %27 = sub i64 4611686018427387903, %26
  %28 = icmp ult i64 %27, %24
  br i1 %28, label %29, label %_ZNSt7__cxx1112basic_stringIcSt11char_traitsIcESaIcEE6appendEPKcm.exit20

29:                                               ; preds = %23
  call void @_ZSt20__throw_length_errorPKc(ptr noundef nonnull @.str.5) #14
  unreachable

_ZNSt7__cxx1112basic_stringIcSt11char_traitsIcESaIcEE6appendEPKcm.exit20: ; preds = %23
  %30 = call noundef nonnull align 8 dereferenceable(32) ptr @_ZNSt7__cxx1112basic_stringIcSt11char_traitsIcESaIcEE9_M_appendEPKcm(ptr noundef nonnull align 8 dereferenceable(32) %0, ptr noundef nonnull %21, i64 noundef %24)
  br label %31

31:                                               ; preds = %18, %_ZNSt7__cxx1112basic_stringIcSt11char_traitsIcESaIcEE6appendEPKcm.exit20
  call void @_ZdaPv(ptr noundef nonnull %21) #16
  br label %32

32:                                               ; preds = %8, %31, %_ZNSt7__cxx1112basic_stringIcSt11char_traitsIcESaIcEE6appendEPKcm.exit
  call void @llvm.lifetime.end.p0(i64 24, ptr nonnull %5) #13
  call void @llvm.lifetime.end.p0(i64 1024, ptr nonnull %4) #13
  ret void
}